; Function Attrs: nounwind uwtable
define internal fastcc range(i32 0, 7) i32 @doh_rdata(ptr noundef nonnull %0, i64 noundef range(i64 12, 0) %1, i16 noundef zeroext %2, i16 noundef zeroext %3, i32 noundef %4, ptr noundef nonnull %5) unnamed_addr #0 {
  switch i16 %3, label %doh_store_a.exit [
    i16 1, label %7
    i16 28, label %21
    i16 5, label %34
  ]

7:                                                ; preds = %6
  %.not17 = icmp eq i16 %2, 4
  br i1 %.not17, label %8, label %doh_store_a.exit

8:                                                ; preds = %7
  %9 = getelementptr inbounds nuw i8, ptr %5, i64 608
  %10 = load i32, ptr %9, align 8, !tbaa !129
  %11 = icmp slt i32 %10, 24
  br i1 %11, label %12, label %doh_store_a.exit

12:                                               ; preds = %8
  %13 = getelementptr inbounds nuw i8, ptr %5, i64 128
  %14 = sext i32 %10 to i64
  %15 = getelementptr inbounds [24 x %struct.dohaddr], ptr %13, i64 0, i64 %14
  store i32 1, ptr %15, align 4, !tbaa !130
  %16 = getelementptr inbounds nuw i8, ptr %15, i64 4
  %17 = sext i32 %4 to i64
  %18 = getelementptr inbounds i8, ptr %0, i64 %17
  %19 = load i32, ptr %18, align 1
  store i32 %19, ptr %16, align 4
  %20 = add nsw i32 %10, 1
  store i32 %20, ptr %9, align 8, !tbaa !129
  br label %doh_store_a.exit

21:                                               ; preds = %6
  %.not16 = icmp eq i16 %2, 16
  br i1 %.not16, label %22, label %doh_store_a.exit

22:                                               ; preds = %21
  %23 = getelementptr inbounds nuw i8, ptr %5, i64 608
  %24 = load i32, ptr %23, align 8, !tbaa !129
  %25 = icmp slt i32 %24, 24
  br i1 %25, label %26, label %doh_store_a.exit

26:                                               ; preds = %22
  %27 = getelementptr inbounds nuw i8, ptr %5, i64 128
  %28 = sext i32 %24 to i64
  %29 = getelementptr inbounds [24 x %struct.dohaddr], ptr %27, i64 0, i64 %28
  store i32 28, ptr %29, align 4, !tbaa !130
  %30 = getelementptr inbounds nuw i8, ptr %29, i64 4
  %31 = sext i32 %4 to i64
  %32 = getelementptr inbounds i8, ptr %0, i64 %31
  tail call void @llvm.memcpy.p0.p0.i64(ptr noundef nonnull align 4 dereferenceable(16) %30, ptr noundef nonnull readonly align 1 dereferenceable(16) %32, i64 16, i1 false)
  %33 = add nsw i32 %24, 1
  store i32 %33, ptr %23, align 8, !tbaa !129
  br label %doh_store_a.exit

34:                                               ; preds = %6
  %35 = getelementptr inbounds nuw i8, ptr %5, i64 616
  %36 = load i32, ptr %35, align 8, !tbaa !143
  %37 = icmp eq i32 %36, 4
  br i1 %37, label %doh_store_a.exit, label %38

38:                                               ; preds = %34
  %39 = add nsw i32 %36, 1
  store i32 %39, ptr %35, align 8, !tbaa !143
  %40 = sext i32 %36 to i64
  %41 = getelementptr inbounds [4 x %struct.dynbuf], ptr %5, i64 0, i64 %40
  br label %42

42:                                               ; preds = %72, %38
  %.036.i = phi i32 [ 128, %38 ], [ %73, %72 ]
  %.033.i = phi i32 [ %4, %38 ], [ %.235.i, %72 ]
  %43 = zext i32 %.033.i to i64
  %.not.i = icmp ugt i64 %1, %43
  br i1 %.not.i, label %44, label %doh_store_a.exit

44:                                               ; preds = %42
  %45 = getelementptr inbounds nuw i8, ptr %0, i64 %43
  %46 = load i8, ptr %45, align 1, !tbaa !98
  %.fr.i = freeze i8 %46
  %47 = zext i8 %.fr.i to i32
  %trunc.i = and i8 %.fr.i, -64
  switch i8 %trunc.i, label %doh_store_a.exit [
    i8 -64, label %48
    i8 0, label %57
  ]

48:                                               ; preds = %44
  %49 = add i32 %.033.i, 1
  %50 = zext i32 %49 to i64
  %.not51.i = icmp ugt i64 %1, %50
  br i1 %.not51.i, label %.thread.i, label %doh_store_a.exit

.thread.i:                                        ; preds = %48
  %51 = shl nuw nsw i32 %47, 8
  %52 = and i32 %51, 16128
  %53 = getelementptr inbounds nuw i8, ptr %0, i64 %50
  %54 = load i8, ptr %53, align 1, !tbaa !98
  %55 = zext i8 %54 to i32
  %56 = or disjoint i32 %52, %55
  br label %72

57:                                               ; preds = %44
  %58 = add i32 %.033.i, 1
  %.not47.i = icmp eq i8 %.fr.i, 0
  br i1 %.not47.i, label %doh_store_a.exit, label %59

59:                                               ; preds = %57
  %60 = tail call i64 @Curl_dyn_len(ptr noundef nonnull %41) #8
  %.not48.i = icmp eq i64 %60, 0
  br i1 %.not48.i, label %63, label %61

61:                                               ; preds = %59
  %62 = tail call i32 @Curl_dyn_addn(ptr noundef nonnull %41, ptr noundef nonnull @.str.9, i64 noundef 1) #8
  %.not49.i = icmp eq i32 %62, 0
  br i1 %.not49.i, label %63, label %doh_store_a.exit

63:                                               ; preds = %61, %59
  %64 = add i32 %58, %47
  %65 = zext i32 %64 to i64
  %66 = icmp ult i64 %1, %65
  br i1 %66, label %doh_store_a.exit, label %67

67:                                               ; preds = %63
  %68 = zext i32 %58 to i64
  %69 = getelementptr inbounds nuw i8, ptr %0, i64 %68
  %70 = zext i8 %.fr.i to i64
  %71 = tail call i32 @Curl_dyn_addn(ptr noundef nonnull %41, ptr noundef nonnull %69, i64 noundef %70) #8
  %.not50.i = icmp eq i32 %71, 0
  br i1 %.not50.i, label %72, label %doh_store_a.exit

72:                                               ; preds = %67, %.thread.i
  %.235.i = phi i32 [ %64, %67 ], [ %56, %.thread.i ]
  %.not52.not.i = icmp eq i8 %.fr.i, 0
  %73 = add nsw i32 %.036.i, -1
  %.not53.i = icmp eq i32 %73, 0
  %or.cond.i = select i1 %.not52.not.i, i1 true, i1 %.not53.i
  br i1 %or.cond.i, label %.critedge.i, label %42, !llvm.loop !149

.critedge.i:                                      ; preds = %72
  %spec.select = select i1 %.not52.not.i, i32 0, i32 3
  br label %doh_store_a.exit

doh_store_a.exit:                                 ; preds = %42, %44, %61, %63, %67, %48, %57, %.critedge.i, %6, %8, %12, %22, %26, %34, %21, %7
  %.0 = phi i32 [ 6, %7 ], [ 6, %21 ], [ 0, %34 ], [ 0, %26 ], [ 0, %22 ], [ 0, %12 ], [ 0, %8 ], [ 0, %6 ], [ %spec.select, %.critedge.i ], [ 2, %48 ], [ 5, %67 ], [ 1, %63 ], [ 5, %61 ], [ 1, %44 ], [ 2, %42 ], [ 0, %57 ]
  ret i32 %.0
}